; Function Attrs: mustprogress uwtable
define void @_ZN7openvdb5v11_011compression17PagedOutputStreamC2ERSo(ptr nocapture noundef nonnull writeonly align 8 dereferenceable(41) %this, ptr noundef nonnull align 8 dereferenceable(8) %os) unnamed_addr #4 align 2 personality ptr @__gxx_personality_v0 {
entry:
  %call = tail call noalias noundef nonnull dereferenceable(1048576) ptr @_Znam(i64 noundef 1048576) #19
  store ptr %call, ptr %this, align 8
  %mCompressedData = getelementptr inbounds i8, ptr %this, i64 8
  store ptr null, ptr %mCompressedData, align 8
  %mCapacity = getelementptr inbounds i8, ptr %this, i64 16
  store i64 1048576, ptr %mCapacity, align 8
  %mBytes = getelementptr inbounds i8, ptr %this, i64 24
  store i32 0, ptr %mBytes, align 8
  %mOs = getelementptr inbounds i8, ptr %this, i64 32
  store ptr %os, ptr %mOs, align 8
  %mSizeOnly = getelementptr inbounds i8, ptr %this, i64 40
  store i8 0, ptr %mSizeOnly, align 8
  %call3 = invoke noalias noundef nonnull dereferenceable(1048592) ptr @_Znam(i64 noundef 1048592) #19
          to label %_ZNSt10unique_ptrIA_cSt14default_deleteIS0_EE5resetIPcvEEvT_.exit unwind label %_ZNSt10unique_ptrIA_cSt14default_deleteIS0_EED2Ev.exit3

_ZNSt10unique_ptrIA_cSt14default_deleteIS0_EE5resetIPcvEEvT_.exit: ; preds = %entry
  store ptr %call3, ptr %mCompressedData, align 8
  ret void

_ZNSt10unique_ptrIA_cSt14default_deleteIS0_EED2Ev.exit3: ; preds = %entry
  %0 = landingpad { ptr, i32 }
          cleanup
  store ptr null, ptr %mCompressedData, align 8
  tail call void @_ZdaPv(ptr noundef nonnull %call) #20
  store ptr null, ptr %this, align 8
  resume { ptr, i32 } %0
}